target datalayout = "e-m:e-p270:32:32-p271:32:32-p272:64:64-i64:64-i128:128-f80:128-n8:16:32:64-S128"
target triple = "x86_64-unknown-linux-gnu"

%"class.hermes::sem::Keywords" = type { ptr, ptr, ptr, ptr, ptr, ptr, ptr, ptr, ptr, ptr, ptr, ptr, ptr, ptr }
%"class.hermes::sem::SemanticValidator" = type { ptr, ptr, %"class.hermes::SourceErrorManager::SaveAndBufferMessages", ptr, i32, %"class.hermes::sem::Keywords", ptr, i8, i8, i32 }
%"class.hermes::SourceErrorManager::SaveAndBufferMessages" = type { ptr }
%"class.std::variant" = type { %"struct.std::__detail::__variant::_Variant_base.base", [7 x i8] }
%"struct.std::__detail::__variant::_Variant_base.base" = type { %"struct.std::__detail::__variant::_Move_assign_base.base" }
%"struct.std::__detail::__variant::_Move_assign_base.base" = type { %"struct.std::__detail::__variant::_Copy_assign_base.base" }
%"struct.std::__detail::__variant::_Copy_assign_base.base" = type { %"struct.std::__detail::__variant::_Move_ctor_base.base" }
%"struct.std::__detail::__variant::_Move_ctor_base.base" = type { %"struct.std::__detail::__variant::_Copy_ctor_base.base" }
%"struct.std::__detail::__variant::_Copy_ctor_base.base" = type { %"struct.std::__detail::__variant::_Variant_storage.base" }
%"struct.std::__detail::__variant::_Variant_storage.base" = type <{ %"union.std::__detail::__variant::_Variadic_union", i8 }>
%"union.std::__detail::__variant::_Variadic_union" = type { %"union.std::__detail::__variant::_Variadic_union.226" }
%"union.std::__detail::__variant::_Variadic_union.226" = type { %"union.std::__detail::__variant::_Variadic_union.228" }
%"union.std::__detail::__variant::_Variadic_union.228" = type { %"struct.std::__detail::__variant::_Uninitialized.229" }
%"struct.std::__detail::__variant::_Uninitialized.229" = type { ptr }
%"class.hermes::sem::FunctionContext" = type { ptr, ptr, ptr, ptr, ptr, ptr, ptr, ptr, ptr, ptr, i8, i32, %"class.llvh::DenseMap.70", %"class.hermes::sem::BlockContext", %"class.llvh::MapVector" }
%"class.llvh::DenseMap.70" = type <{ ptr, i32, i32, i32, [4 x i8] }>
%"class.hermes::sem::BlockContext" = type { ptr, ptr, ptr, ptr, i64 }
%"class.llvh::MapVector" = type { %"class.llvh::DenseMap.73", %"class.std::vector.76" }
%"class.llvh::DenseMap.73" = type <{ ptr, i32, i32, i32, [4 x i8] }>
%"class.std::vector.76" = type { %"struct.std::_Vector_base.77" }
%"struct.std::_Vector_base.77" = type { %"struct.std::_Vector_base<std::pair<const hermes::UniqueString *, llvh::SmallVector<hermes::ESTree::FunctionDeclarationNode *, 4>>, std::allocator<std::pair<const hermes::UniqueString *, llvh::SmallVector<hermes::ESTree::FunctionDeclarationNode *, 4>>>>::_Vector_impl" }
%"struct.std::_Vector_base<std::pair<const hermes::UniqueString *, llvh::SmallVector<hermes::ESTree::FunctionDeclarationNode *, 4>>, std::allocator<std::pair<const hermes::UniqueString *, llvh::SmallVector<hermes::ESTree::FunctionDeclarationNode *, 4>>>>::_Vector_impl" = type { %"struct.std::_Vector_base<std::pair<const hermes::UniqueString *, llvh::SmallVector<hermes::ESTree::FunctionDeclarationNode *, 4>>, std::allocator<std::pair<const hermes::UniqueString *, llvh::SmallVector<hermes::ESTree::FunctionDeclarationNode *, 4>>>>::_Vector_impl_data" }
%"struct.std::_Vector_base<std::pair<const hermes::UniqueString *, llvh::SmallVector<hermes::ESTree::FunctionDeclarationNode *, 4>>, std::allocator<std::pair<const hermes::UniqueString *, llvh::SmallVector<hermes::ESTree::FunctionDeclarationNode *, 4>>>>::_Vector_impl_data" = type { ptr, ptr, ptr }
%"class.hermes::ESTree::Node" = type { %"class.llvh::ilist_node", i32, i32, %"class.llvh::SMRange", %"class.llvh::SMLoc" }
%"class.llvh::ilist_node" = type { %"class.llvh::ilist_node_impl" }
%"class.llvh::ilist_node_impl" = type { %"class.llvh::ilist_node_base" }
%"class.llvh::ilist_node_base" = type { ptr, ptr }
%"class.llvh::SMRange" = type { %"class.llvh::SMLoc", %"class.llvh::SMLoc" }
%"class.llvh::SMLoc" = type { ptr }
%"class.llvh::simple_ilist" = type { %"class.llvh::ilist_sentinel" }
%"class.llvh::ilist_sentinel" = type { %"class.llvh::ilist_node_impl" }
%"class.hermes::ESTree::VariableDeclarationNode" = type { %"class.hermes::ESTree::Node", ptr, %"class.llvh::simple_ilist" }
%"class.hermes::ESTree::VariableDeclaratorNode" = type { %"class.hermes::ESTree::Node", ptr, ptr }

; Function Attrs: mustprogress nounwind uwtable
define linkonce_odr hidden void @_ZN6hermes6ESTree24RecursiveVisitorDispatchINS_3sem17SemanticValidatorELb1EE13visitChildrenERS3_PNS0_22VariableDeclaratorNodeE(ptr noundef nonnull align 8 dereferenceable(168) %v, ptr noundef %node) #0 comdat align 2 {
entry:
  %v.addr = alloca ptr, align 8
  %node.addr = alloca ptr, align 8
  %coerce = alloca %"class.std::variant", align 8
  %coerce2 = alloca %"class.std::variant", align 8
  store ptr %v, ptr %v.addr, align 8
  store ptr %node, ptr %node.addr, align 8
  %0 = load ptr, ptr %v.addr, align 8
  %1 = load ptr, ptr %node.addr, align 8
  %_init = getelementptr inbounds %"class.hermes::ESTree::VariableDeclaratorNode", ptr %1, i32 0, i32 1
  %2 = load ptr, ptr %_init, align 8
  %3 = load ptr, ptr %node.addr, align 8
  %call = call { ptr, i8 } @_ZN6hermes6ESTree24RecursiveVisitorDispatchINS_3sem17SemanticValidatorELb1EE5visitERS3_PNS0_4NodeES7_(ptr noundef nonnull align 8 dereferenceable(168) %0, ptr noundef %2, ptr noundef %3)
  %4 = getelementptr inbounds { ptr, i8 }, ptr %coerce, i32 0, i32 0
  %5 = extractvalue { ptr, i8 } %call, 0
  store ptr %5, ptr %4, align 8
  %6 = getelementptr inbounds { ptr, i8 }, ptr %coerce, i32 0, i32 1
  %7 = extractvalue { ptr, i8 } %call, 1
  store i8 %7, ptr %6, align 8
  %8 = load ptr, ptr %v.addr, align 8
  %9 = load ptr, ptr %node.addr, align 8
  %_id = getelementptr inbounds %"class.hermes::ESTree::VariableDeclaratorNode", ptr %9, i32 0, i32 2
  %10 = load ptr, ptr %_id, align 8
  %11 = load ptr, ptr %node.addr, align 8
  %call1 = call { ptr, i8 } @_ZN6hermes6ESTree24RecursiveVisitorDispatchINS_3sem17SemanticValidatorELb1EE5visitERS3_PNS0_4NodeES7_(ptr noundef nonnull align 8 dereferenceable(168) %8, ptr noundef %10, ptr noundef %11)
  %12 = getelementptr inbounds { ptr, i8 }, ptr %coerce2, i32 0, i32 0
  %13 = extractvalue { ptr, i8 } %call1, 0
  store ptr %13, ptr %12, align 8
  %14 = getelementptr inbounds { ptr, i8 }, ptr %coerce2, i32 0, i32 1
  %15 = extractvalue { ptr, i8 } %call1, 1
  store i8 %15, ptr %14, align 8
  ret void
}

; Function Attrs: mustprogress nounwind uwtable
define linkonce_odr hidden noundef ptr @_ZN4llvh16cast_convert_valIN6hermes6ESTree23VariableDeclarationNodeEPNS2_4NodeES5_E4doitERKS5_(ptr noundef nonnull align 8 dereferenceable(8) %Val) #0 comdat align 2 {
entry:
  %Val.addr = alloca ptr, align 8
  %Res2 = alloca ptr, align 8
  store ptr %Val, ptr %Val.addr, align 8
  %0 = load ptr, ptr %Val.addr, align 8
  %1 = load ptr, ptr %0, align 8
  store ptr %1, ptr %Res2, align 8
  %2 = load ptr, ptr %Res2, align 8
  ret ptr %2
}

; Function Attrs: mustprogress nounwind uwtable
define linkonce_odr hidden void @_ZN6hermes6ESTree19visitESTreeChildrenINS_3sem17SemanticValidatorENS0_22VariableDeclaratorNodeEEEvRT_PT0_(ptr noundef nonnull align 8 dereferenceable(168) %v, ptr noundef %node) #0 comdat {
entry:
  %v.addr = alloca ptr, align 8
  %node.addr = alloca ptr, align 8
  store ptr %v, ptr %v.addr, align 8
  store ptr %node, ptr %node.addr, align 8
  %0 = load ptr, ptr %v.addr, align 8
  %1 = load ptr, ptr %node.addr, align 8
  call void @_ZN6hermes6ESTree24RecursiveVisitorDispatchINS_3sem17SemanticValidatorELb1EE13visitChildrenERS3_PNS0_22VariableDeclaratorNodeE(ptr noundef nonnull align 8 dereferenceable(168) %0, ptr noundef %1)
  ret void
}

; Function Attrs: mustprogress nounwind uwtable
define linkonce_odr hidden noundef ptr @_ZN6hermes3sem17SemanticValidator11curFunctionEv(ptr noundef nonnull align 8 dereferenceable(168) %this) #0 comdat align 2 {
entry:
  %this.addr = alloca ptr, align 8
  store ptr %this, ptr %this.addr, align 8
  %this1 = load ptr, ptr %this.addr, align 8
  %funcCtx_ = getelementptr inbounds %"class.hermes::sem::SemanticValidator", ptr %this1, i32 0, i32 6
  %0 = load ptr, ptr %funcCtx_, align 8
  ret ptr %0
}

; Function Attrs: mustprogress nounwind uwtable
define linkonce_odr hidden noundef ptr @_ZN4llvh4castIN6hermes6ESTree23VariableDeclarationNodeENS2_4NodeEEENS_10cast_rettyIT_PT0_E8ret_typeES8_(ptr noundef %Val) #0 comdat {
entry:
  %Val.addr = alloca ptr, align 8
  store ptr %Val, ptr %Val.addr, align 8
  %call = call noundef ptr @_ZN4llvh16cast_convert_valIN6hermes6ESTree23VariableDeclarationNodeEPNS2_4NodeES5_E4doitERKS5_(ptr noundef nonnull align 8 dereferenceable(8) %Val.addr)
  ret ptr %call
}

; Function Attrs: mustprogress nounwind uwtable
define hidden void @_ZN6hermes3sem17SemanticValidator5visitEPNS_6ESTree22VariableDeclaratorNodeEPNS2_4NodeE(ptr noundef nonnull align 8 dereferenceable(168) %this, ptr noundef %varDecl, ptr noundef %parent) #0 align 2 {
entry:
  %this.addr = alloca ptr, align 8
  %varDecl.addr = alloca ptr, align 8
  %parent.addr = alloca ptr, align 8
  %declaration = alloca ptr, align 8
  %declKind = alloca i8, align 1
  store ptr %this, ptr %this.addr, align 8
  store ptr %varDecl, ptr %varDecl.addr, align 8
  store ptr %parent, ptr %parent.addr, align 8
  %this1 = load ptr, ptr %this.addr, align 8
  %0 = load ptr, ptr %parent.addr, align 8
  %call = call noundef ptr @_ZN4llvh4castIN6hermes6ESTree23VariableDeclarationNodeENS2_4NodeEEENS_10cast_rettyIT_PT0_E8ret_typeES8_(ptr noundef %0)
  store ptr %call, ptr %declaration, align 8
  %1 = load ptr, ptr %declaration, align 8
  %_kind = getelementptr inbounds %"class.hermes::ESTree::VariableDeclarationNode", ptr %1, i32 0, i32 1
  %2 = load ptr, ptr %_kind, align 8
  %kw_ = getelementptr inbounds %"class.hermes::sem::SemanticValidator", ptr %this1, i32 0, i32 5
  %identLet = getelementptr inbounds %"class.hermes::sem::Keywords", ptr %kw_, i32 0, i32 9
  %3 = load ptr, ptr %identLet, align 8
  %cmp = icmp eq ptr %2, %3
  br i1 %cmp, label %if.then, label %if.else

if.then:                                          ; preds = %entry
  store i8 1, ptr %declKind, align 1
  br label %if.end7

if.else:                                          ; preds = %entry
  %4 = load ptr, ptr %declaration, align 8
  %_kind2 = getelementptr inbounds %"class.hermes::ESTree::VariableDeclarationNode", ptr %4, i32 0, i32 1
  %5 = load ptr, ptr %_kind2, align 8
  %kw_3 = getelementptr inbounds %"class.hermes::sem::SemanticValidator", ptr %this1, i32 0, i32 5
  %identConst = getelementptr inbounds %"class.hermes::sem::Keywords", ptr %kw_3, i32 0, i32 10
  %6 = load ptr, ptr %identConst, align 8
  %cmp4 = icmp eq ptr %5, %6
  br i1 %cmp4, label %if.then5, label %if.else6

if.then5:                                         ; preds = %if.else
  store i8 0, ptr %declKind, align 1
  br label %if.end

if.else6:                                         ; preds = %if.else
  store i8 2, ptr %declKind, align 1
  br label %if.end

if.end:                                           ; preds = %if.else6, %if.then5
  br label %if.end7

if.end7:                                          ; preds = %if.end, %if.then
  %7 = load i8, ptr %declKind, align 1
  %8 = load ptr, ptr %varDecl.addr, align 8
  %_id = getelementptr inbounds %"class.hermes::ESTree::VariableDeclaratorNode", ptr %8, i32 0, i32 2
  %9 = load ptr, ptr %_id, align 8
  %call8 = call noundef ptr @_ZN6hermes3sem17SemanticValidator11curFunctionEv(ptr noundef nonnull align 8 dereferenceable(168) %this1)
  %varDecls = getelementptr inbounds %"class.hermes::sem::FunctionContext", ptr %call8, i32 0, i32 5
  %10 = load ptr, ptr %varDecls, align 8
  %call9 = call noundef ptr @_ZN6hermes3sem17SemanticValidator11curFunctionEv(ptr noundef nonnull align 8 dereferenceable(168) %this1)
  %scopedDecls = getelementptr inbounds %"class.hermes::sem::FunctionContext", ptr %call9, i32 0, i32 6
  %11 = load ptr, ptr %scopedDecls, align 8
  call void @_ZN6hermes3sem17SemanticValidator24validateDeclarationNamesENS_18JavaScriptDeclKindEPNS_6ESTree4NodeEPN4llvh11SmallVectorINS0_12FunctionInfo7VarDeclELj4EEESB_(ptr noundef nonnull align 8 dereferenceable(168) %this1, i8 noundef zeroext %7, ptr noundef %9, ptr noundef %10, ptr noundef %11)
  %12 = load ptr, ptr %varDecl.addr, align 8
  call void @_ZN6hermes6ESTree19visitESTreeChildrenINS_3sem17SemanticValidatorENS0_22VariableDeclaratorNodeEEEvRT_PT0_(ptr noundef nonnull align 8 dereferenceable(168) %this1, ptr noundef %12)
  ret void
}