; Function Attrs: mustprogress nounwind uwtable
define hidden void @_ZN6hermes3sem17SemanticValidator5visitEPNS_6ESTree22VariableDeclaratorNodeEPNS2_4NodeE(ptr noundef nonnull align 8 dereferenceable(168) %this, ptr noundef %varDecl, ptr noundef readonly captures(none) %parent) local_unnamed_addr #0 align 2 {
entry:
  %_kind = getelementptr inbounds nuw i8, ptr %parent, i64 48
  %0 = load ptr, ptr %_kind, align 8
  %identLet = getelementptr inbounds nuw i8, ptr %this, i64 112
  %1 = load ptr, ptr %identLet, align 8
  %cmp = icmp eq ptr %0, %1
  %identConst = getelementptr inbounds nuw i8, ptr %this, i64 120
  %2 = load ptr, ptr %identConst, align 8
  %cmp4 = icmp eq ptr %0, %2
  %. = select i1 %cmp4, i8 0, i8 2
  %declKind.0 = select i1 %cmp, i8 1, i8 %.
  %_id = getelementptr inbounds nuw i8, ptr %varDecl, i64 56
  %3 = load ptr, ptr %_id, align 8
  %funcCtx_.i = getelementptr inbounds nuw i8, ptr %this, i64 152
  %4 = load ptr, ptr %funcCtx_.i, align 8
  %varDecls = getelementptr inbounds nuw i8, ptr %4, i64 40
  %5 = load ptr, ptr %varDecls, align 8
  %scopedDecls = getelementptr inbounds nuw i8, ptr %4, i64 48
  %6 = load ptr, ptr %scopedDecls, align 8
  tail call void @_ZN6hermes3sem17SemanticValidator24validateDeclarationNamesENS_18JavaScriptDeclKindEPNS_6ESTree4NodeEPN4llvh11SmallVectorINS0_12FunctionInfo7VarDeclELj4EEESB_(ptr noundef nonnull align 8 dereferenceable(168) %this, i8 noundef zeroext %declKind.0, ptr noundef %3, ptr noundef %5, ptr noundef %6)
  %_init.i = getelementptr inbounds nuw i8, ptr %varDecl, i64 48
  %7 = load ptr, ptr %_init.i, align 8
  %call.i = tail call { ptr, i8 } @_ZN6hermes6ESTree24RecursiveVisitorDispatchINS_3sem17SemanticValidatorELb1EE5visitERS3_PNS0_4NodeES7_(ptr noundef nonnull align 8 dereferenceable(168) %this, ptr noundef %7, ptr noundef %varDecl)
  %8 = load ptr, ptr %_id, align 8
  %call1.i = tail call { ptr, i8 } @_ZN6hermes6ESTree24RecursiveVisitorDispatchINS_3sem17SemanticValidatorELb1EE5visitERS3_PNS0_4NodeES7_(ptr noundef nonnull align 8 dereferenceable(168) %this, ptr noundef %8, ptr noundef %varDecl)
  ret void
}